target datalayout = "e-m:e-p270:32:32-p271:32:32-p272:64:64-i64:64-i128:128-f80:128-n8:16:32:64-S128"
target triple = "x86_64-pc-linux-gnu"

%struct.TupleTableSlotOps = type { i64, ptr, ptr, ptr, ptr, ptr, ptr, ptr, ptr, ptr, ptr, ptr, ptr }
%struct.TupleTableSlot = type { i32, i16, i16, ptr, ptr, ptr, ptr, ptr, %struct.ItemPointerData, i32 }
%struct.ItemPointerData = type { %struct.BlockIdData, i16 }
%struct.BlockIdData = type { i16, i16 }
%struct.TupleDescData = type { i32, i32, i32, i32, ptr, [0 x %struct.CompactAttribute] }
%struct.CompactAttribute = type { i32, i16, i8, i8, i8, i8, i8, i8, i8 }

@.str.1 = private unnamed_addr constant [13 x i8] c"execTuples.c\00", align 1
@.str.4 = private unnamed_addr constant [28 x i8] c"invalid attribute number %d\00", align 1
@__func__.slot_getsomeattrs_int = private unnamed_addr constant [22 x i8] c"slot_getsomeattrs_int\00", align 1

; Function Attrs: nounwind uwtable
define dso_local void @slot_getsomeattrs_int(ptr noundef %0, i32 noundef %1) #0 {
  %3 = alloca ptr, align 8
  %4 = alloca i32, align 4
  store ptr %0, ptr %3, align 8
  store i32 %1, ptr %4, align 4
  %5 = load i32, ptr %4, align 4
  %6 = load ptr, ptr %3, align 8
  %7 = getelementptr inbounds nuw %struct.TupleTableSlot, ptr %6, i32 0, i32 4
  %8 = load ptr, ptr %7, align 8
  %9 = getelementptr inbounds nuw %struct.TupleDescData, ptr %8, i32 0, i32 0
  %10 = load i32, ptr %9, align 8
  %11 = icmp sgt i32 %5, %10
  %12 = zext i1 %11 to i32
  %13 = icmp ne i32 %12, 0
  %14 = zext i1 %13 to i32
  %15 = sext i32 %14 to i64
  %16 = call i64 @llvm.expect.i64(i64 %15, i64 0)
  %17 = icmp ne i64 %16, 0
  br i1 %17, label %18, label %29

18:                                               ; preds = %2
  br label %19

19:                                               ; preds = %18
  br i1 true, label %20, label %22

20:                                               ; preds = %19
  %21 = call zeroext i1 @errstart_cold(i32 noundef 21, ptr noundef null) #11
  br i1 %21, label %24, label %27

22:                                               ; preds = %19
  %23 = call zeroext i1 @errstart(i32 noundef 21, ptr noundef null)
  br i1 %23, label %24, label %27

24:                                               ; preds = %22, %20
  %25 = load i32, ptr %4, align 4
  %26 = call i32 (ptr, ...) @errmsg_internal(ptr noundef @.str.4, i32 noundef %25)
  call void @errfinish(ptr noundef @.str.1, i32 noundef 2096, ptr noundef @__func__.slot_getsomeattrs_int)
  br label %27

27:                                               ; preds = %24, %22, %20
  unreachable

28:                                               ; No predecessors!
  br label %29

29:                                               ; preds = %28, %2
  %30 = load ptr, ptr %3, align 8
  %31 = getelementptr inbounds nuw %struct.TupleTableSlot, ptr %30, i32 0, i32 3
  %32 = load ptr, ptr %31, align 8
  %33 = getelementptr inbounds nuw %struct.TupleTableSlotOps, ptr %32, i32 0, i32 4
  %34 = load ptr, ptr %33, align 8
  %35 = load ptr, ptr %3, align 8
  %36 = load i32, ptr %4, align 4
  call void %34(ptr noundef %35, i32 noundef %36)
  %37 = load ptr, ptr %3, align 8
  %38 = getelementptr inbounds nuw %struct.TupleTableSlot, ptr %37, i32 0, i32 2
  %39 = load i16, ptr %38, align 2
  %40 = sext i16 %39 to i32
  %41 = load i32, ptr %4, align 4
  %42 = icmp slt i32 %40, %41
  %43 = zext i1 %42 to i32
  %44 = icmp ne i32 %43, 0
  %45 = zext i1 %44 to i32
  %46 = sext i32 %45 to i64
  %47 = call i64 @llvm.expect.i64(i64 %46, i64 0)
  %48 = icmp ne i64 %47, 0
  br i1 %48, label %49, label %60

49:                                               ; preds = %29
  %50 = load ptr, ptr %3, align 8
  %51 = load ptr, ptr %3, align 8
  %52 = getelementptr inbounds nuw %struct.TupleTableSlot, ptr %51, i32 0, i32 2
  %53 = load i16, ptr %52, align 2
  %54 = sext i16 %53 to i32
  %55 = load i32, ptr %4, align 4
  call void @slot_getmissingattrs(ptr noundef %50, i32 noundef %54, i32 noundef %55)
  %56 = load i32, ptr %4, align 4
  %57 = trunc i32 %56 to i16
  %58 = load ptr, ptr %3, align 8
  %59 = getelementptr inbounds nuw %struct.TupleTableSlot, ptr %58, i32 0, i32 2
  store i16 %57, ptr %59, align 2
  br label %60

60:                                               ; preds = %49, %29
  ret void
}