; Function Attrs: nounwind uwtable
define dso_local void @slot_getsomeattrs_int(ptr noundef %0, i32 noundef %1) local_unnamed_addr #1 {
  %3 = getelementptr inbounds nuw i8, ptr %0, i64 16
  %4 = load ptr, ptr %3, align 8
  %5 = load i32, ptr %4, align 8
  %6 = icmp sgt i32 %1, %5
  br i1 %6, label %7, label %10, !prof !10

7:                                                ; preds = %2
  %8 = tail call zeroext i1 @errstart_cold(i32 noundef 21, ptr noundef null) #15
  tail call void @llvm.assume(i1 %8)
  %9 = tail call i32 (ptr, ...) @errmsg_internal(ptr noundef nonnull @.str.4, i32 noundef %1) #14
  tail call void @errfinish(ptr noundef nonnull @.str.1, i32 noundef 2096, ptr noundef nonnull @__func__.slot_getsomeattrs_int) #14
  unreachable

10:                                               ; preds = %2
  %11 = getelementptr inbounds nuw i8, ptr %0, i64 8
  %12 = load ptr, ptr %11, align 8
  %13 = getelementptr inbounds nuw i8, ptr %12, i64 32
  %14 = load ptr, ptr %13, align 8
  tail call void %14(ptr noundef nonnull %0, i32 noundef %1) #14
  %15 = getelementptr inbounds nuw i8, ptr %0, i64 6
  %16 = load i16, ptr %15, align 2
  %17 = sext i16 %16 to i32
  %18 = icmp sgt i32 %1, %17
  br i1 %18, label %19, label %21, !prof !10

19:                                               ; preds = %10
  tail call void @slot_getmissingattrs(ptr noundef nonnull %0, i32 noundef %17, i32 noundef %1)
  %20 = trunc i32 %1 to i16
  store i16 %20, ptr %15, align 2
  br label %21

21:                                               ; preds = %19, %10
  ret void
}